target datalayout = "e-m:e-p270:32:32-p271:32:32-p272:64:64-i64:64-i128:128-f80:128-n8:16:32:64-S128"
target triple = "x86_64-pc-linux-gnu"

%struct.mlib_image = type { i32, i32, i32, i32, i32, i32, ptr, ptr, [4 x i8], i32, i32, [3 x i32] }

; Function Attrs: nounwind uwtable
define internal i32 @mlib_ImageGetType(ptr noundef %0) #1 {
  %2 = alloca ptr, align 8
  store ptr %0, ptr %2, align 8
  %3 = load ptr, ptr %2, align 8
  %4 = getelementptr inbounds %struct.mlib_image, ptr %3, i32 0, i32 0
  %5 = load i32, ptr %4, align 8
  ret i32 %5
}

; Function Attrs: nounwind uwtable
define i32 @j2d_mlib_ImageAffine(ptr noundef %0, ptr noundef %1, ptr noundef %2, i32 noundef %3, i32 noundef %4) #1 {
  %6 = alloca i32, align 4
  %7 = alloca ptr, align 8
  %8 = alloca ptr, align 8
  %9 = alloca ptr, align 8
  %10 = alloca i32, align 4
  %11 = alloca i32, align 4
  %12 = alloca i32, align 4
  store ptr %0, ptr %7, align 8
  store ptr %1, ptr %8, align 8
  store ptr %2, ptr %9, align 8
  store i32 %3, ptr %10, align 4
  store i32 %4, ptr %11, align 4
  %13 = load ptr, ptr %8, align 8
  %14 = icmp eq ptr %13, null
  br i1 %14, label %15, label %16

15:                                               ; preds = %5
  store i32 2, ptr %6, align 4
  br label %45

16:                                               ; preds = %5
  %17 = load ptr, ptr %7, align 8
  %18 = icmp eq ptr %17, null
  br i1 %18, label %19, label %20

19:                                               ; preds = %16
  store i32 2, ptr %6, align 4
  br label %45

20:                                               ; preds = %16
  %21 = load ptr, ptr %7, align 8
  %22 = call i32 @mlib_ImageGetType(ptr noundef %21)
  store i32 %22, ptr %12, align 4
  %23 = load i32, ptr %12, align 4
  %24 = icmp ne i32 %23, 0
  br i1 %24, label %25, label %38

25:                                               ; preds = %20
  %26 = load i32, ptr %12, align 4
  %27 = icmp ne i32 %26, 1
  br i1 %27, label %28, label %38

28:                                               ; preds = %25
  %29 = load i32, ptr %12, align 4
  %30 = icmp ne i32 %29, 2
  br i1 %30, label %31, label %38

31:                                               ; preds = %28
  %32 = load i32, ptr %12, align 4
  %33 = icmp ne i32 %32, 6
  br i1 %33, label %34, label %38

34:                                               ; preds = %31
  %35 = load i32, ptr %12, align 4
  %36 = icmp ne i32 %35, 3
  br i1 %36, label %37, label %38

37:                                               ; preds = %34
  store i32 1, ptr %6, align 4
  br label %45

38:                                               ; preds = %34, %31, %28, %25, %20
  %39 = load ptr, ptr %7, align 8
  %40 = load ptr, ptr %8, align 8
  %41 = load ptr, ptr %9, align 8
  %42 = load i32, ptr %10, align 4
  %43 = load i32, ptr %11, align 4
  %44 = call i32 @mlib_ImageAffine_alltypes(ptr noundef %39, ptr noundef %40, ptr noundef %41, i32 noundef %42, i32 noundef %43)
  store i32 %44, ptr %6, align 4
  br label %45

45:                                               ; preds = %38, %37, %19, %15
  %46 = load i32, ptr %6, align 4
  ret i32 %46
}