; Function Attrs: nounwind uwtable
define i32 @j2d_mlib_ImageAffine(ptr noundef %0, ptr noundef %1, ptr noundef %2, i32 noundef %3, i32 noundef %4) local_unnamed_addr #1 {
  %6 = icmp eq ptr %1, null
  %7 = icmp eq ptr %0, null
  %or.cond = or i1 %7, %6
  br i1 %or.cond, label %11, label %8

8:                                                ; preds = %5
  %.val = load i32, ptr %0, align 8
  switch i32 %.val, label %11 [
    i32 6, label %9
    i32 3, label %9
    i32 2, label %9
    i32 1, label %9
    i32 0, label %9
  ]

9:                                                ; preds = %8, %8, %8, %8, %8
  %10 = tail call i32 @mlib_ImageAffine_alltypes(ptr noundef nonnull %0, ptr noundef nonnull %1, ptr noundef %2, i32 noundef %3, i32 noundef %4)
  br label %11

11:                                               ; preds = %8, %5, %9
  %.0 = phi i32 [ %10, %9 ], [ 2, %5 ], [ 1, %8 ]
  ret i32 %.0
}